target datalayout = "e-m:e-p270:32:32-p271:32:32-p272:64:64-i64:64-i128:128-f80:128-n8:16:32:64-S128"
target triple = "x86_64-pc-linux-gnu"

%"class.std::basic_string_view" = type { i64, ptr }

@_ZZN8simdjson22builtin_implementationEvE12builtin_impl = internal global ptr null, align 8
@_ZGVZN8simdjson22builtin_implementationEvE12builtin_impl = internal global i64 0, align 8
@.str.33 = private unnamed_addr constant [9 x i8] c"fallback\00", align 1

; Function Attrs: noinline noreturn nounwind uwtable
define linkonce_odr hidden void @__clang_call_terminate(ptr noundef %0) #5 comdat {
  %2 = call ptr @__cxa_begin_catch(ptr %0) #10
  call void @_ZSt9terminatev() #56
  unreachable
}

; Function Attrs: mustprogress nounwind uwtable
define linkonce_odr dso_local noundef i64 @_ZNSt11char_traitsIcE6lengthEPKc(ptr noundef %0) #2 comdat align 2 {
  %2 = alloca ptr, align 8
  store ptr %0, ptr %2, align 8, !tbaa !4
  %3 = load ptr, ptr %2, align 8, !tbaa !4
  %4 = call i64 @strlen(ptr noundef %3) #10
  ret i64 %4
}

; Function Attrs: mustprogress nounwind uwtable
define linkonce_odr dso_local void @_ZNSt17basic_string_viewIcSt11char_traitsIcEEC2EPKc(ptr noundef nonnull align 8 dereferenceable(16) %0, ptr noundef nonnull %1) unnamed_addr #2 comdat align 2 personality ptr @__gxx_personality_v0 {
  %3 = alloca ptr, align 8
  %4 = alloca ptr, align 8
  store ptr %0, ptr %3, align 8, !tbaa !78
  store ptr %1, ptr %4, align 8, !tbaa !4
  %5 = load ptr, ptr %3, align 8
  %6 = getelementptr inbounds nuw %"class.std::basic_string_view", ptr %5, i32 0, i32 0
  %7 = load ptr, ptr %4, align 8, !tbaa !4
  %8 = invoke noundef i64 @_ZNSt11char_traitsIcE6lengthEPKc(ptr noundef %7)
          to label %9 unwind label %12

9:                                                ; preds = %2
  store i64 %8, ptr %6, align 8, !tbaa !81
  %10 = getelementptr inbounds nuw %"class.std::basic_string_view", ptr %5, i32 0, i32 1
  %11 = load ptr, ptr %4, align 8, !tbaa !4
  store ptr %11, ptr %10, align 8, !tbaa !83
  ret void

12:                                               ; preds = %2
  %13 = landingpad { ptr, i32 }
          catch ptr null
  %14 = extractvalue { ptr, i32 } %13, 0
  call void @__clang_call_terminate(ptr %14) #56
  unreachable
}

; Function Attrs: mustprogress uwtable
define dso_local noundef ptr @_ZN8simdjson22builtin_implementationEv() #0 personality ptr @__gxx_personality_v0 {
  %1 = alloca ptr, align 8
  %2 = alloca i32, align 4
  %3 = alloca %"class.std::basic_string_view", align 8
  %4 = load atomic i8, ptr @_ZGVZN8simdjson22builtin_implementationEvE12builtin_impl acquire, align 8
  %5 = icmp eq i8 %4, 0
  br i1 %5, label %6, label %13, !prof !64

6:                                                ; preds = %0
  %7 = call i32 @__cxa_guard_acquire(ptr @_ZGVZN8simdjson22builtin_implementationEvE12builtin_impl) #10
  %8 = icmp ne i32 %7, 0
  br i1 %8, label %9, label %13

9:                                                ; preds = %6
  %10 = invoke noundef nonnull align 1 dereferenceable(1) ptr @_ZN8simdjson29get_available_implementationsEv()
          to label %11 unwind label %15

11:                                               ; preds = %9
  call void @llvm.lifetime.start.p0(i64 16, ptr %3) #10
  call void @_ZNSt17basic_string_viewIcSt11char_traitsIcEEC2EPKc(ptr noundef nonnull align 8 dereferenceable(16) %3, ptr noundef @.str.33) #10
  %12 = call noundef ptr @_ZNK8simdjson8internal29available_implementation_listixERKSt17basic_string_viewIcSt11char_traitsIcEE(ptr noundef nonnull align 1 dereferenceable(1) %10, ptr noundef nonnull align 8 dereferenceable(16) %3) #10
  call void @llvm.lifetime.end.p0(i64 16, ptr %3) #10
  store ptr %12, ptr @_ZZN8simdjson22builtin_implementationEvE12builtin_impl, align 8, !tbaa !60
  call void @__cxa_guard_release(ptr @_ZGVZN8simdjson22builtin_implementationEvE12builtin_impl) #10
  br label %13

13:                                               ; preds = %11, %6, %0
  %14 = load ptr, ptr @_ZZN8simdjson22builtin_implementationEvE12builtin_impl, align 8, !tbaa !60
  ret ptr %14

15:                                               ; preds = %9
  %16 = landingpad { ptr, i32 }
          cleanup
  %17 = extractvalue { ptr, i32 } %16, 0
  store ptr %17, ptr %1, align 8
  %18 = extractvalue { ptr, i32 } %16, 1
  store i32 %18, ptr %2, align 4
  call void @__cxa_guard_abort(ptr @_ZGVZN8simdjson22builtin_implementationEvE12builtin_impl) #10
  br label %19

19:                                               ; preds = %15
  %20 = load ptr, ptr %1, align 8
  %21 = load i32, ptr %2, align 4
  %22 = insertvalue { ptr, i32 } poison, ptr %20, 0
  %23 = insertvalue { ptr, i32 } %22, i32 %21, 1
  resume { ptr, i32 } %23
}