; Function Attrs: mustprogress nounwind uwtable
define dso_local noundef ptr @_ZN8simdjson22builtin_implementationEv() local_unnamed_addr #6 personality ptr @__gxx_personality_v0 {
  %1 = alloca %"class.std::basic_string_view", align 8
  %2 = load atomic i8, ptr @_ZGVZN8simdjson22builtin_implementationEvE12builtin_impl acquire, align 8
  %3 = icmp eq i8 %2, 0
  br i1 %3, label %4, label %10, !prof !51

4:                                                ; preds = %0
  %5 = tail call i32 @__cxa_guard_acquire(ptr nonnull @_ZGVZN8simdjson22builtin_implementationEvE12builtin_impl) #45
  %.not = icmp eq i32 %5, 0
  br i1 %.not, label %10, label %6

6:                                                ; preds = %4
  %7 = tail call noundef nonnull align 1 dereferenceable(1) ptr @_ZN8simdjson29get_available_implementationsEv()
  call void @llvm.lifetime.start.p0(i64 16, ptr nonnull %1) #45
  store i64 8, ptr %1, align 8, !tbaa !62
  %8 = getelementptr inbounds nuw i8, ptr %1, i64 8
  store ptr @.str.33, ptr %8, align 8, !tbaa !63
  %9 = call noundef ptr @_ZNK8simdjson8internal29available_implementation_listixERKSt17basic_string_viewIcSt11char_traitsIcEE(ptr noundef nonnull align 1 dereferenceable(1) @_ZZN8simdjson29get_available_implementationsEvE25available_implementations, ptr noundef nonnull align 8 dereferenceable(16) %1) #45
  call void @llvm.lifetime.end.p0(i64 16, ptr nonnull %1) #45
  store ptr %9, ptr @_ZZN8simdjson22builtin_implementationEvE12builtin_impl, align 8, !tbaa !55
  call void @__cxa_guard_release(ptr nonnull @_ZGVZN8simdjson22builtin_implementationEvE12builtin_impl) #45
  br label %10

10:                                               ; preds = %6, %4, %0
  %11 = load ptr, ptr @_ZZN8simdjson22builtin_implementationEvE12builtin_impl, align 8, !tbaa !55
  ret ptr %11
}